target datalayout = "e-m:e-p270:32:32-p271:32:32-p272:64:64-i64:64-i128:128-f80:128-n8:16:32:64-S128"
target triple = "x86_64-pc-linux-gnu"

%struct.timespec = type { i64, i64 }

@.str.1 = private unnamed_addr constant [5 x i8] c"%s =\00", align 1
@.str.3 = private unnamed_addr constant [11 x i8] c"%9.2f sec\0A\00", align 1
@.str.6 = private unnamed_addr constant [11 x i8] c"test.bblif\00", align 1
@.str.7 = private unnamed_addr constant [16 x i8] c"Runtime stats:\0A\00", align 1
@.str.8 = private unnamed_addr constant [11 x i8] c"ABC to Man\00", align 1
@.str.9 = private unnamed_addr constant [11 x i8] c"Writing   \00", align 1
@.str.10 = private unnamed_addr constant [11 x i8] c"Reading   \00", align 1
@.str.11 = private unnamed_addr constant [11 x i8] c"Man to ABC\00", align 1
@.str.12 = private unnamed_addr constant [11 x i8] c"Verify    \00", align 1

; Function Attrs: inlinehint nounwind uwtable
define internal i64 @Abc_Clock() #3 {
  %1 = alloca i64, align 8
  %2 = alloca %struct.timespec, align 8
  %3 = alloca i32, align 4
  %4 = alloca i64, align 8
  call void @llvm.lifetime.start.p0(i64 16, ptr %2) #11
  %5 = call i32 @clock_gettime(i32 noundef 1, ptr noundef %2) #11
  %6 = icmp slt i32 %5, 0
  br i1 %6, label %7, label %8

7:                                                ; preds = %0
  store i64 -1, ptr %1, align 8
  store i32 1, ptr %3, align 4
  br label %19

8:                                                ; preds = %0
  call void @llvm.lifetime.start.p0(i64 8, ptr %4) #11
  %9 = getelementptr inbounds nuw %struct.timespec, ptr %2, i32 0, i32 0
  %10 = load i64, ptr %9, align 8, !tbaa !66
  %11 = mul nsw i64 %10, 1000000
  store i64 %11, ptr %4, align 8, !tbaa !46
  %12 = getelementptr inbounds nuw %struct.timespec, ptr %2, i32 0, i32 1
  %13 = load i64, ptr %12, align 8, !tbaa !68
  %14 = mul nsw i64 %13, 1000000
  %15 = sdiv i64 %14, 1000000000
  %16 = load i64, ptr %4, align 8, !tbaa !46
  %17 = add nsw i64 %16, %15
  store i64 %17, ptr %4, align 8, !tbaa !46
  %18 = load i64, ptr %4, align 8, !tbaa !46
  store i64 %18, ptr %1, align 8
  store i32 1, ptr %3, align 4
  call void @llvm.lifetime.end.p0(i64 8, ptr %4) #11
  br label %19

19:                                               ; preds = %8, %7
  call void @llvm.lifetime.end.p0(i64 16, ptr %2) #11
  %20 = load i64, ptr %1, align 8
  ret i64 %20
}

; Function Attrs: nounwind uwtable
define void @Bbl_ManTest(ptr noundef %0) #0 {
  %2 = alloca ptr, align 8
  %3 = alloca ptr, align 8
  %4 = alloca ptr, align 8
  %5 = alloca ptr, align 8
  %6 = alloca ptr, align 8
  %7 = alloca i64, align 8
  %8 = alloca i64, align 8
  %9 = alloca i64, align 8
  %10 = alloca i64, align 8
  %11 = alloca i64, align 8
  %12 = alloca i64, align 8
  store ptr %0, ptr %2, align 8, !tbaa !10
  call void @llvm.lifetime.start.p0(i64 8, ptr %3) #11
  call void @llvm.lifetime.start.p0(i64 8, ptr %4) #11
  call void @llvm.lifetime.start.p0(i64 8, ptr %5) #11
  call void @llvm.lifetime.start.p0(i64 8, ptr %6) #11
  store ptr @.str.6, ptr %6, align 8, !tbaa !58
  call void @llvm.lifetime.start.p0(i64 8, ptr %7) #11
  call void @llvm.lifetime.start.p0(i64 8, ptr %8) #11
  call void @llvm.lifetime.start.p0(i64 8, ptr %9) #11
  call void @llvm.lifetime.start.p0(i64 8, ptr %10) #11
  call void @llvm.lifetime.start.p0(i64 8, ptr %11) #11
  call void @llvm.lifetime.start.p0(i64 8, ptr %12) #11
  %13 = call i64 @Abc_Clock()
  store i64 %13, ptr %7, align 8, !tbaa !46
  %14 = load ptr, ptr %2, align 8, !tbaa !10
  %15 = call ptr @Bbl_ManFromAbc(ptr noundef %14)
  store ptr %15, ptr %4, align 8, !tbaa !3
  %16 = load ptr, ptr %4, align 8, !tbaa !3
  call void @Bbl_ManPrintStats(ptr noundef %16)
  %17 = call i64 @Abc_Clock()
  %18 = load i64, ptr %7, align 8, !tbaa !46
  %19 = sub nsw i64 %17, %18
  store i64 %19, ptr %8, align 8, !tbaa !46
  %20 = call i64 @Abc_Clock()
  store i64 %20, ptr %7, align 8, !tbaa !46
  %21 = load ptr, ptr %4, align 8, !tbaa !3
  %22 = load ptr, ptr %6, align 8, !tbaa !58
  call void @Bbl_ManDumpBinaryBlif(ptr noundef %21, ptr noundef %22)
  %23 = call i64 @Abc_Clock()
  %24 = load i64, ptr %7, align 8, !tbaa !46
  %25 = sub nsw i64 %23, %24
  store i64 %25, ptr %9, align 8, !tbaa !46
  %26 = call i64 @Abc_Clock()
  store i64 %26, ptr %7, align 8, !tbaa !46
  %27 = load ptr, ptr %6, align 8, !tbaa !58
  %28 = call ptr @Bbl_ManReadBinaryBlif(ptr noundef %27)
  store ptr %28, ptr %5, align 8, !tbaa !3
  %29 = load ptr, ptr %4, align 8, !tbaa !3
  call void @Bbl_ManStop(ptr noundef %29)
  %30 = load ptr, ptr %5, align 8, !tbaa !3
  store ptr %30, ptr %4, align 8, !tbaa !3
  %31 = call i64 @Abc_Clock()
  %32 = load i64, ptr %7, align 8, !tbaa !46
  %33 = sub nsw i64 %31, %32
  store i64 %33, ptr %10, align 8, !tbaa !46
  %34 = call i64 @Abc_Clock()
  store i64 %34, ptr %7, align 8, !tbaa !46
  %35 = load ptr, ptr %4, align 8, !tbaa !3
  %36 = call ptr @Bbl_ManToAig(ptr noundef %35)
  store ptr %36, ptr %3, align 8, !tbaa !10
  %37 = load ptr, ptr %4, align 8, !tbaa !3
  call void @Bbl_ManStop(ptr noundef %37)
  %38 = call i64 @Abc_Clock()
  %39 = load i64, ptr %7, align 8, !tbaa !46
  %40 = sub nsw i64 %38, %39
  store i64 %40, ptr %11, align 8, !tbaa !46
  %41 = call i64 @Abc_Clock()
  store i64 %41, ptr %7, align 8, !tbaa !46
  %42 = load ptr, ptr %3, align 8, !tbaa !10
  call void @Abc_NtkDelete(ptr noundef %42)
  %43 = call i64 @Abc_Clock()
  %44 = load i64, ptr %7, align 8, !tbaa !46
  %45 = sub nsw i64 %43, %44
  store i64 %45, ptr %12, align 8, !tbaa !46
  %46 = call i32 (ptr, ...) @printf(ptr noundef @.str.7)
  call void (i32, ptr, ...) @Abc_Print(i32 noundef 1, ptr noundef @.str.1, ptr noundef @.str.8)
  %47 = load i64, ptr %8, align 8, !tbaa !46
  %48 = sitofp i64 %47 to double
  %49 = fmul double 1.000000e+00, %48
  %50 = fdiv double %49, 1.000000e+06
  call void (i32, ptr, ...) @Abc_Print(i32 noundef 1, ptr noundef @.str.3, double noundef %50)
  call void (i32, ptr, ...) @Abc_Print(i32 noundef 1, ptr noundef @.str.1, ptr noundef @.str.9)
  %51 = load i64, ptr %9, align 8, !tbaa !46
  %52 = sitofp i64 %51 to double
  %53 = fmul double 1.000000e+00, %52
  %54 = fdiv double %53, 1.000000e+06
  call void (i32, ptr, ...) @Abc_Print(i32 noundef 1, ptr noundef @.str.3, double noundef %54)
  call void (i32, ptr, ...) @Abc_Print(i32 noundef 1, ptr noundef @.str.1, ptr noundef @.str.10)
  %55 = load i64, ptr %10, align 8, !tbaa !46
  %56 = sitofp i64 %55 to double
  %57 = fmul double 1.000000e+00, %56
  %58 = fdiv double %57, 1.000000e+06
  call void (i32, ptr, ...) @Abc_Print(i32 noundef 1, ptr noundef @.str.3, double noundef %58)
  call void (i32, ptr, ...) @Abc_Print(i32 noundef 1, ptr noundef @.str.1, ptr noundef @.str.11)
  %59 = load i64, ptr %11, align 8, !tbaa !46
  %60 = sitofp i64 %59 to double
  %61 = fmul double 1.000000e+00, %60
  %62 = fdiv double %61, 1.000000e+06
  call void (i32, ptr, ...) @Abc_Print(i32 noundef 1, ptr noundef @.str.3, double noundef %62)
  call void (i32, ptr, ...) @Abc_Print(i32 noundef 1, ptr noundef @.str.1, ptr noundef @.str.12)
  %63 = load i64, ptr %12, align 8, !tbaa !46
  %64 = sitofp i64 %63 to double
  %65 = fmul double 1.000000e+00, %64
  %66 = fdiv double %65, 1.000000e+06
  call void (i32, ptr, ...) @Abc_Print(i32 noundef 1, ptr noundef @.str.3, double noundef %66)
  call void @llvm.lifetime.end.p0(i64 8, ptr %12) #11
  call void @llvm.lifetime.end.p0(i64 8, ptr %11) #11
  call void @llvm.lifetime.end.p0(i64 8, ptr %10) #11
  call void @llvm.lifetime.end.p0(i64 8, ptr %9) #11
  call void @llvm.lifetime.end.p0(i64 8, ptr %8) #11
  call void @llvm.lifetime.end.p0(i64 8, ptr %7) #11
  call void @llvm.lifetime.end.p0(i64 8, ptr %6) #11
  call void @llvm.lifetime.end.p0(i64 8, ptr %5) #11
  call void @llvm.lifetime.end.p0(i64 8, ptr %4) #11
  call void @llvm.lifetime.end.p0(i64 8, ptr %3) #11
  ret void
}