; Function Attrs: nounwind uwtable
define void @Bbl_ManTest(ptr noundef %0) local_unnamed_addr #0 {
  %2 = alloca %struct.timespec, align 8
  %3 = alloca %struct.timespec, align 8
  %4 = alloca %struct.timespec, align 8
  %5 = alloca %struct.timespec, align 8
  %6 = alloca %struct.timespec, align 8
  %7 = alloca %struct.timespec, align 8
  %8 = alloca %struct.timespec, align 8
  %9 = alloca %struct.timespec, align 8
  %10 = alloca %struct.timespec, align 8
  %11 = alloca %struct.timespec, align 8
  call void @llvm.lifetime.start.p0(i64 16, ptr nonnull %11) #14
  %12 = call i32 @clock_gettime(i32 noundef 1, ptr noundef nonnull %11) #14
  %13 = icmp slt i32 %12, 0
  br i1 %13, label %Abc_Clock.exit, label %14

14:                                               ; preds = %1
  %15 = load i64, ptr %11, align 8, !tbaa !55
  %.neg37 = mul i64 %15, -1000000
  %16 = getelementptr inbounds nuw i8, ptr %11, i64 8
  %17 = load i64, ptr %16, align 8, !tbaa !58
  %.neg = sdiv i64 %17, -1000
  %.neg38 = add i64 %.neg, %.neg37
  br label %Abc_Clock.exit

Abc_Clock.exit:                                   ; preds = %1, %14
  %.0.i.neg = phi i64 [ %.neg38, %14 ], [ 1, %1 ]
  call void @llvm.lifetime.end.p0(i64 16, ptr nonnull %11) #14
  %18 = call ptr @Bbl_ManFromAbc(ptr noundef %0) #14
  call void @Bbl_ManPrintStats(ptr noundef %18) #14
  call void @llvm.lifetime.start.p0(i64 16, ptr nonnull %10) #14
  %19 = call i32 @clock_gettime(i32 noundef 1, ptr noundef nonnull %10) #14
  %20 = icmp slt i32 %19, 0
  br i1 %20, label %Abc_Clock.exit20, label %21

21:                                               ; preds = %Abc_Clock.exit
  %22 = load i64, ptr %10, align 8, !tbaa !55
  %23 = mul nsw i64 %22, 1000000
  %24 = getelementptr inbounds nuw i8, ptr %10, i64 8
  %25 = load i64, ptr %24, align 8, !tbaa !58
  %26 = sdiv i64 %25, 1000
  %27 = add nsw i64 %26, %23
  br label %Abc_Clock.exit20

Abc_Clock.exit20:                                 ; preds = %Abc_Clock.exit, %21
  %.0.i19 = phi i64 [ %27, %21 ], [ -1, %Abc_Clock.exit ]
  call void @llvm.lifetime.end.p0(i64 16, ptr nonnull %10) #14
  call void @llvm.lifetime.start.p0(i64 16, ptr nonnull %9) #14
  %28 = call i32 @clock_gettime(i32 noundef 1, ptr noundef nonnull %9) #14
  %29 = icmp slt i32 %28, 0
  br i1 %29, label %Abc_Clock.exit22, label %30

30:                                               ; preds = %Abc_Clock.exit20
  %31 = load i64, ptr %9, align 8, !tbaa !55
  %.neg40 = mul i64 %31, -1000000
  %32 = getelementptr inbounds nuw i8, ptr %9, i64 8
  %33 = load i64, ptr %32, align 8, !tbaa !58
  %.neg39 = sdiv i64 %33, -1000
  %.neg41 = add i64 %.neg39, %.neg40
  br label %Abc_Clock.exit22

Abc_Clock.exit22:                                 ; preds = %Abc_Clock.exit20, %30
  %.0.i21.neg = phi i64 [ %.neg41, %30 ], [ 1, %Abc_Clock.exit20 ]
  call void @llvm.lifetime.end.p0(i64 16, ptr nonnull %9) #14
  call void @Bbl_ManDumpBinaryBlif(ptr noundef %18, ptr noundef nonnull @.str.6) #14
  call void @llvm.lifetime.start.p0(i64 16, ptr nonnull %8) #14
  %34 = call i32 @clock_gettime(i32 noundef 1, ptr noundef nonnull %8) #14
  %35 = icmp slt i32 %34, 0
  br i1 %35, label %Abc_Clock.exit24, label %36

36:                                               ; preds = %Abc_Clock.exit22
  %37 = load i64, ptr %8, align 8, !tbaa !55
  %38 = mul nsw i64 %37, 1000000
  %39 = getelementptr inbounds nuw i8, ptr %8, i64 8
  %40 = load i64, ptr %39, align 8, !tbaa !58
  %41 = sdiv i64 %40, 1000
  %42 = add nsw i64 %41, %38
  br label %Abc_Clock.exit24

Abc_Clock.exit24:                                 ; preds = %Abc_Clock.exit22, %36
  %.0.i23 = phi i64 [ %42, %36 ], [ -1, %Abc_Clock.exit22 ]
  call void @llvm.lifetime.end.p0(i64 16, ptr nonnull %8) #14
  call void @llvm.lifetime.start.p0(i64 16, ptr nonnull %7) #14
  %43 = call i32 @clock_gettime(i32 noundef 1, ptr noundef nonnull %7) #14
  %44 = icmp slt i32 %43, 0
  br i1 %44, label %Abc_Clock.exit26, label %45

45:                                               ; preds = %Abc_Clock.exit24
  %46 = load i64, ptr %7, align 8, !tbaa !55
  %.neg43 = mul i64 %46, -1000000
  %47 = getelementptr inbounds nuw i8, ptr %7, i64 8
  %48 = load i64, ptr %47, align 8, !tbaa !58
  %.neg42 = sdiv i64 %48, -1000
  %.neg44 = add i64 %.neg42, %.neg43
  br label %Abc_Clock.exit26

Abc_Clock.exit26:                                 ; preds = %Abc_Clock.exit24, %45
  %.0.i25.neg = phi i64 [ %.neg44, %45 ], [ 1, %Abc_Clock.exit24 ]
  call void @llvm.lifetime.end.p0(i64 16, ptr nonnull %7) #14
  %49 = call ptr @Bbl_ManReadBinaryBlif(ptr noundef nonnull @.str.6) #14
  call void @Bbl_ManStop(ptr noundef %18) #14
  call void @llvm.lifetime.start.p0(i64 16, ptr nonnull %6) #14
  %50 = call i32 @clock_gettime(i32 noundef 1, ptr noundef nonnull %6) #14
  %51 = icmp slt i32 %50, 0
  br i1 %51, label %Abc_Clock.exit28, label %52

52:                                               ; preds = %Abc_Clock.exit26
  %53 = load i64, ptr %6, align 8, !tbaa !55
  %54 = mul nsw i64 %53, 1000000
  %55 = getelementptr inbounds nuw i8, ptr %6, i64 8
  %56 = load i64, ptr %55, align 8, !tbaa !58
  %57 = sdiv i64 %56, 1000
  %58 = add nsw i64 %57, %54
  br label %Abc_Clock.exit28

Abc_Clock.exit28:                                 ; preds = %Abc_Clock.exit26, %52
  %.0.i27 = phi i64 [ %58, %52 ], [ -1, %Abc_Clock.exit26 ]
  call void @llvm.lifetime.end.p0(i64 16, ptr nonnull %6) #14
  call void @llvm.lifetime.start.p0(i64 16, ptr nonnull %5) #14
  %59 = call i32 @clock_gettime(i32 noundef 1, ptr noundef nonnull %5) #14
  %60 = icmp slt i32 %59, 0
  br i1 %60, label %Abc_Clock.exit30, label %61

61:                                               ; preds = %Abc_Clock.exit28
  %62 = load i64, ptr %5, align 8, !tbaa !55
  %.neg46 = mul i64 %62, -1000000
  %63 = getelementptr inbounds nuw i8, ptr %5, i64 8
  %64 = load i64, ptr %63, align 8, !tbaa !58
  %.neg45 = sdiv i64 %64, -1000
  %.neg47 = add i64 %.neg45, %.neg46
  br label %Abc_Clock.exit30

Abc_Clock.exit30:                                 ; preds = %Abc_Clock.exit28, %61
  %.0.i29.neg = phi i64 [ %.neg47, %61 ], [ 1, %Abc_Clock.exit28 ]
  call void @llvm.lifetime.end.p0(i64 16, ptr nonnull %5) #14
  %65 = call ptr @Bbl_ManToAig(ptr noundef %49)
  call void @Bbl_ManStop(ptr noundef %49) #14
  call void @llvm.lifetime.start.p0(i64 16, ptr nonnull %4) #14
  %66 = call i32 @clock_gettime(i32 noundef 1, ptr noundef nonnull %4) #14
  %67 = icmp slt i32 %66, 0
  br i1 %67, label %Abc_Clock.exit32, label %68

68:                                               ; preds = %Abc_Clock.exit30
  %69 = load i64, ptr %4, align 8, !tbaa !55
  %70 = mul nsw i64 %69, 1000000
  %71 = getelementptr inbounds nuw i8, ptr %4, i64 8
  %72 = load i64, ptr %71, align 8, !tbaa !58
  %73 = sdiv i64 %72, 1000
  %74 = add nsw i64 %73, %70
  br label %Abc_Clock.exit32

Abc_Clock.exit32:                                 ; preds = %Abc_Clock.exit30, %68
  %.0.i31 = phi i64 [ %74, %68 ], [ -1, %Abc_Clock.exit30 ]
  call void @llvm.lifetime.end.p0(i64 16, ptr nonnull %4) #14
  call void @llvm.lifetime.start.p0(i64 16, ptr nonnull %3) #14
  %75 = call i32 @clock_gettime(i32 noundef 1, ptr noundef nonnull %3) #14
  %76 = icmp slt i32 %75, 0
  br i1 %76, label %Abc_Clock.exit34, label %77

77:                                               ; preds = %Abc_Clock.exit32
  %78 = load i64, ptr %3, align 8, !tbaa !55
  %.neg49 = mul i64 %78, -1000000
  %79 = getelementptr inbounds nuw i8, ptr %3, i64 8
  %80 = load i64, ptr %79, align 8, !tbaa !58
  %.neg48 = sdiv i64 %80, -1000
  %.neg50 = add i64 %.neg48, %.neg49
  br label %Abc_Clock.exit34

Abc_Clock.exit34:                                 ; preds = %Abc_Clock.exit32, %77
  %.0.i33.neg = phi i64 [ %.neg50, %77 ], [ 1, %Abc_Clock.exit32 ]
  call void @llvm.lifetime.end.p0(i64 16, ptr nonnull %3) #14
  call void @Abc_NtkDelete(ptr noundef %65) #14
  call void @llvm.lifetime.start.p0(i64 16, ptr nonnull %2) #14
  %81 = call i32 @clock_gettime(i32 noundef 1, ptr noundef nonnull %2) #14
  %82 = icmp slt i32 %81, 0
  br i1 %82, label %Abc_Clock.exit36, label %83

83:                                               ; preds = %Abc_Clock.exit34
  %84 = load i64, ptr %2, align 8, !tbaa !55
  %85 = mul nsw i64 %84, 1000000
  %86 = getelementptr inbounds nuw i8, ptr %2, i64 8
  %87 = load i64, ptr %86, align 8, !tbaa !58
  %88 = sdiv i64 %87, 1000
  %89 = add nsw i64 %88, %85
  br label %Abc_Clock.exit36

Abc_Clock.exit36:                                 ; preds = %Abc_Clock.exit34, %83
  %.0.i35 = phi i64 [ %89, %83 ], [ -1, %Abc_Clock.exit34 ]
  %90 = add i64 %.0.i31, %.0.i29.neg
  %91 = add i64 %.0.i27, %.0.i25.neg
  %92 = add i64 %.0.i23, %.0.i21.neg
  %93 = add i64 %.0.i19, %.0.i.neg
  call void @llvm.lifetime.end.p0(i64 16, ptr nonnull %2) #14
  %94 = add i64 %.0.i35, %.0.i33.neg
  %puts = call i32 @puts(ptr nonnull dereferenceable(1) @str.1)
  call void (i32, ptr, ...) @Abc_Print(i32 poison, ptr noundef nonnull @.str.1, ptr noundef nonnull @.str.8)
  %95 = sitofp i64 %93 to double
  %96 = fdiv double %95, 1.000000e+06
  call void (i32, ptr, ...) @Abc_Print(i32 poison, ptr noundef nonnull @.str.3, double noundef %96)
  call void (i32, ptr, ...) @Abc_Print(i32 poison, ptr noundef nonnull @.str.1, ptr noundef nonnull @.str.9)
  %97 = sitofp i64 %92 to double
  %98 = fdiv double %97, 1.000000e+06
  call void (i32, ptr, ...) @Abc_Print(i32 poison, ptr noundef nonnull @.str.3, double noundef %98)
  call void (i32, ptr, ...) @Abc_Print(i32 poison, ptr noundef nonnull @.str.1, ptr noundef nonnull @.str.10)
  %99 = sitofp i64 %91 to double
  %100 = fdiv double %99, 1.000000e+06
  call void (i32, ptr, ...) @Abc_Print(i32 poison, ptr noundef nonnull @.str.3, double noundef %100)
  call void (i32, ptr, ...) @Abc_Print(i32 poison, ptr noundef nonnull @.str.1, ptr noundef nonnull @.str.11)
  %101 = sitofp i64 %90 to double
  %102 = fdiv double %101, 1.000000e+06
  call void (i32, ptr, ...) @Abc_Print(i32 poison, ptr noundef nonnull @.str.3, double noundef %102)
  call void (i32, ptr, ...) @Abc_Print(i32 poison, ptr noundef nonnull @.str.1, ptr noundef nonnull @.str.12)
  %103 = sitofp i64 %94 to double
  %104 = fdiv double %103, 1.000000e+06
  call void (i32, ptr, ...) @Abc_Print(i32 poison, ptr noundef nonnull @.str.3, double noundef %104)
  ret void
}